target datalayout = "e-m:e-p270:32:32-p271:32:32-p272:64:64-i64:64-i128:128-f80:128-n8:16:32:64-S128"
target triple = "x86_64-pc-linux-gnu"

%struct.IDAMemRec = type { double, ptr, ptr, i32, double, double, ptr, i32, ptr, ptr, i32, ptr, ptr, i32, i32, double, double, ptr, i32, i32, i32, ptr, ptr, i32, ptr, ptr, ptr, i32, double, i32, i32, double, ptr, ptr, i32, ptr, ptr, i32, i32, i32, double, ptr, ptr, [6 x ptr], [6 x double], [6 x double], [6 x double], [6 x double], [6 x double], ptr, ptr, ptr, ptr, ptr, ptr, ptr, ptr, ptr, ptr, ptr, ptr, ptr, ptr, ptr, [6 x ptr], ptr, ptr, ptr, ptr, [6 x ptr], ptr, ptr, ptr, ptr, ptr, ptr, ptr, ptr, ptr, ptr, ptr, ptr, ptr, ptr, [6 x ptr], ptr, ptr, ptr, ptr, ptr, double, ptr, ptr, i32, i32, i32, i32, i32, i32, i32, double, double, double, i32, double, i32, i32, i32, i32, double, double, double, double, double, double, double, double, double, double, double, double, double, double, i32, i32, i32, i32, i32, i64, double, i32, i64, i64, i64, i64, i64, i64, i64, i64, i64, i64, i64, i64, i64, i64, i64, i64, i64, i64, i64, i64, i64, i64, i64, i64, ptr, ptr, ptr, i32, i32, i32, i32, i32, i32, i32, i32, i32, i32, i32, i32, i32, ptr, ptr, ptr, ptr, ptr, ptr, i32, i32, i32, i32, i32, i32, double, double, double, ptr, i32, ptr, ptr, double, double, double, ptr, ptr, ptr, double, double, i32, i32, i64, ptr, i32, i32, ptr, i32 }
%struct.IDAadjMemRec = type { double, double, i32, i32, double, ptr, i32, ptr, i32, ptr, ptr, i32, i64, ptr, i64, i32, ptr, ptr, ptr, ptr, i32, i32, i32, i32, i32, [6 x ptr], [6 x ptr], [6 x double], ptr, ptr, ptr, ptr, i64 }
%struct.DtpntMemRec = type { double, ptr }
%struct.HermiteDataMemRec = type { ptr, ptr, ptr, ptr }

; Function Attrs: nounwind uwtable
define internal i32 @IDAAGettnSolutionYp(ptr noundef %0, ptr noundef %1) #0 {
  %3 = alloca i32, align 4
  %4 = alloca ptr, align 8
  %5 = alloca ptr, align 8
  %6 = alloca i32, align 4
  %7 = alloca i32, align 4
  %8 = alloca double, align 8
  %9 = alloca double, align 8
  %10 = alloca double, align 8
  %11 = alloca i32, align 4
  store ptr %0, ptr %4, align 8, !tbaa !11
  store ptr %1, ptr %5, align 8, !tbaa !74
  call void @llvm.lifetime.start.p0(i64 4, ptr %6) #6
  call void @llvm.lifetime.start.p0(i64 4, ptr %7) #6
  call void @llvm.lifetime.start.p0(i64 8, ptr %8) #6
  call void @llvm.lifetime.start.p0(i64 8, ptr %9) #6
  call void @llvm.lifetime.start.p0(i64 8, ptr %10) #6
  %12 = load ptr, ptr %4, align 8, !tbaa !11
  %13 = getelementptr inbounds nuw %struct.IDAMemRec, ptr %12, i32 0, i32 131
  %14 = load i64, ptr %13, align 8, !tbaa !152
  %15 = icmp eq i64 %14, 0
  br i1 %15, label %16, label %22

16:                                               ; preds = %2
  %17 = load ptr, ptr %4, align 8, !tbaa !11
  %18 = getelementptr inbounds nuw %struct.IDAMemRec, ptr %17, i32 0, i32 43
  %19 = getelementptr inbounds [6 x ptr], ptr %18, i64 0, i64 1
  %20 = load ptr, ptr %19, align 8, !tbaa !74
  %21 = load ptr, ptr %5, align 8, !tbaa !74
  call void @N_VScale(double noundef 1.000000e+00, ptr noundef %20, ptr noundef %21)
  store i32 0, ptr %3, align 4
  store i32 1, ptr %11, align 4
  br label %80

22:                                               ; preds = %2
  %23 = load ptr, ptr %5, align 8, !tbaa !74
  call void @N_VConst(double noundef 0.000000e+00, ptr noundef %23)
  %24 = load ptr, ptr %4, align 8, !tbaa !11
  %25 = getelementptr inbounds nuw %struct.IDAMemRec, ptr %24, i32 0, i32 182
  %26 = load i32, ptr %25, align 4, !tbaa !111
  store i32 %26, ptr %7, align 4, !tbaa !9
  %27 = load ptr, ptr %4, align 8, !tbaa !11
  %28 = getelementptr inbounds nuw %struct.IDAMemRec, ptr %27, i32 0, i32 182
  %29 = load i32, ptr %28, align 4, !tbaa !111
  %30 = icmp eq i32 %29, 0
  br i1 %30, label %31, label %32

31:                                               ; preds = %22
  store i32 1, ptr %7, align 4, !tbaa !9
  br label %32

32:                                               ; preds = %31, %22
  store double 1.000000e+00, ptr %8, align 8, !tbaa !73
  store double 0.000000e+00, ptr %9, align 8, !tbaa !73
  store double 0.000000e+00, ptr %10, align 8, !tbaa !73
  store i32 1, ptr %6, align 4, !tbaa !9
  br label %33

33:                                               ; preds = %76, %32
  %34 = load i32, ptr %6, align 4, !tbaa !9
  %35 = load i32, ptr %7, align 4, !tbaa !9
  %36 = icmp sle i32 %34, %35
  br i1 %36, label %37, label %79

37:                                               ; preds = %33
  %38 = load double, ptr %9, align 8, !tbaa !73
  %39 = load double, ptr %10, align 8, !tbaa !73
  %40 = load double, ptr %8, align 8, !tbaa !73
  %41 = load ptr, ptr %4, align 8, !tbaa !11
  %42 = getelementptr inbounds nuw %struct.IDAMemRec, ptr %41, i32 0, i32 44
  %43 = load i32, ptr %6, align 4, !tbaa !9
  %44 = sub nsw i32 %43, 1
  %45 = sext i32 %44 to i64
  %46 = getelementptr inbounds [6 x double], ptr %42, i64 0, i64 %45
  %47 = load double, ptr %46, align 8, !tbaa !73
  %48 = fdiv double %40, %47
  %49 = call double @llvm.fmuladd.f64(double %38, double %39, double %48)
  store double %49, ptr %9, align 8, !tbaa !73
  %50 = load double, ptr %8, align 8, !tbaa !73
  %51 = load double, ptr %10, align 8, !tbaa !73
  %52 = fmul double %50, %51
  store double %52, ptr %8, align 8, !tbaa !73
  %53 = load ptr, ptr %4, align 8, !tbaa !11
  %54 = getelementptr inbounds nuw %struct.IDAMemRec, ptr %53, i32 0, i32 44
  %55 = load i32, ptr %6, align 4, !tbaa !9
  %56 = sub nsw i32 %55, 1
  %57 = sext i32 %56 to i64
  %58 = getelementptr inbounds [6 x double], ptr %54, i64 0, i64 %57
  %59 = load double, ptr %58, align 8, !tbaa !73
  %60 = load ptr, ptr %4, align 8, !tbaa !11
  %61 = getelementptr inbounds nuw %struct.IDAMemRec, ptr %60, i32 0, i32 44
  %62 = load i32, ptr %6, align 4, !tbaa !9
  %63 = sext i32 %62 to i64
  %64 = getelementptr inbounds [6 x double], ptr %61, i64 0, i64 %63
  %65 = load double, ptr %64, align 8, !tbaa !73
  %66 = fdiv double %59, %65
  store double %66, ptr %10, align 8, !tbaa !73
  %67 = load ptr, ptr %5, align 8, !tbaa !74
  %68 = load double, ptr %9, align 8, !tbaa !73
  %69 = load ptr, ptr %4, align 8, !tbaa !11
  %70 = getelementptr inbounds nuw %struct.IDAMemRec, ptr %69, i32 0, i32 43
  %71 = load i32, ptr %6, align 4, !tbaa !9
  %72 = sext i32 %71 to i64
  %73 = getelementptr inbounds [6 x ptr], ptr %70, i64 0, i64 %72
  %74 = load ptr, ptr %73, align 8, !tbaa !74
  %75 = load ptr, ptr %5, align 8, !tbaa !74
  call void @N_VLinearSum(double noundef 1.000000e+00, ptr noundef %67, double noundef %68, ptr noundef %74, ptr noundef %75)
  br label %76

76:                                               ; preds = %37
  %77 = load i32, ptr %6, align 4, !tbaa !9
  %78 = add nsw i32 %77, 1
  store i32 %78, ptr %6, align 4, !tbaa !9
  br label %33, !llvm.loop !255

79:                                               ; preds = %33
  store i32 0, ptr %3, align 4
  store i32 1, ptr %11, align 4
  br label %80

80:                                               ; preds = %79, %16
  call void @llvm.lifetime.end.p0(i64 8, ptr %10) #6
  call void @llvm.lifetime.end.p0(i64 8, ptr %9) #6
  call void @llvm.lifetime.end.p0(i64 8, ptr %8) #6
  call void @llvm.lifetime.end.p0(i64 4, ptr %7) #6
  call void @llvm.lifetime.end.p0(i64 4, ptr %6) #6
  %81 = load i32, ptr %3, align 4
  ret i32 %81
}

; Function Attrs: nounwind uwtable
define internal i32 @IDAAhermiteStorePnt(ptr noundef %0, ptr noundef %1) #0 {
  %3 = alloca ptr, align 8
  %4 = alloca ptr, align 8
  %5 = alloca ptr, align 8
  %6 = alloca ptr, align 8
  %7 = alloca i32, align 4
  store ptr %0, ptr %3, align 8, !tbaa !11
  store ptr %1, ptr %4, align 8, !tbaa !54
  call void @llvm.lifetime.start.p0(i64 8, ptr %5) #6
  call void @llvm.lifetime.start.p0(i64 8, ptr %6) #6
  call void @llvm.lifetime.start.p0(i64 4, ptr %7) #6
  %8 = load ptr, ptr %3, align 8, !tbaa !11
  %9 = getelementptr inbounds nuw %struct.IDAMemRec, ptr %8, i32 0, i32 204
  %10 = load ptr, ptr %9, align 8, !tbaa !15
  store ptr %10, ptr %5, align 8, !tbaa !13
  %11 = load ptr, ptr %4, align 8, !tbaa !54
  %12 = getelementptr inbounds nuw %struct.DtpntMemRec, ptr %11, i32 0, i32 1
  %13 = load ptr, ptr %12, align 8, !tbaa !58
  store ptr %13, ptr %6, align 8, !tbaa !63
  %14 = load ptr, ptr %3, align 8, !tbaa !11
  %15 = getelementptr inbounds nuw %struct.IDAMemRec, ptr %14, i32 0, i32 43
  %16 = getelementptr inbounds [6 x ptr], ptr %15, i64 0, i64 0
  %17 = load ptr, ptr %16, align 8, !tbaa !74
  %18 = load ptr, ptr %6, align 8, !tbaa !63
  %19 = getelementptr inbounds nuw %struct.HermiteDataMemRec, ptr %18, i32 0, i32 0
  %20 = load ptr, ptr %19, align 8, !tbaa !65
  call void @N_VScale(double noundef 1.000000e+00, ptr noundef %17, ptr noundef %20)
  %21 = load ptr, ptr %5, align 8, !tbaa !13
  %22 = getelementptr inbounds nuw %struct.IDAadjMemRec, ptr %21, i32 0, i32 22
  %23 = load i32, ptr %22, align 8, !tbaa !41
  %24 = icmp ne i32 %23, 0
  br i1 %24, label %25, label %52

25:                                               ; preds = %2
  store i32 0, ptr %7, align 4, !tbaa !9
  br label %26

26:                                               ; preds = %48, %25
  %27 = load i32, ptr %7, align 4, !tbaa !9
  %28 = load ptr, ptr %3, align 8, !tbaa !11
  %29 = getelementptr inbounds nuw %struct.IDAMemRec, ptr %28, i32 0, i32 19
  %30 = load i32, ptr %29, align 4, !tbaa !62
  %31 = icmp slt i32 %27, %30
  br i1 %31, label %32, label %51

32:                                               ; preds = %26
  %33 = load ptr, ptr %3, align 8, !tbaa !11
  %34 = getelementptr inbounds nuw %struct.IDAMemRec, ptr %33, i32 0, i32 69
  %35 = getelementptr inbounds [6 x ptr], ptr %34, i64 0, i64 0
  %36 = load ptr, ptr %35, align 8, !tbaa !75
  %37 = load i32, ptr %7, align 4, !tbaa !9
  %38 = sext i32 %37 to i64
  %39 = getelementptr inbounds ptr, ptr %36, i64 %38
  %40 = load ptr, ptr %39, align 8, !tbaa !74
  %41 = load ptr, ptr %6, align 8, !tbaa !63
  %42 = getelementptr inbounds nuw %struct.HermiteDataMemRec, ptr %41, i32 0, i32 2
  %43 = load ptr, ptr %42, align 8, !tbaa !68
  %44 = load i32, ptr %7, align 4, !tbaa !9
  %45 = sext i32 %44 to i64
  %46 = getelementptr inbounds ptr, ptr %43, i64 %45
  %47 = load ptr, ptr %46, align 8, !tbaa !74
  call void @N_VScale(double noundef 1.000000e+00, ptr noundef %40, ptr noundef %47)
  br label %48

48:                                               ; preds = %32
  %49 = load i32, ptr %7, align 4, !tbaa !9
  %50 = add nsw i32 %49, 1
  store i32 %50, ptr %7, align 4, !tbaa !9
  br label %26, !llvm.loop !81

51:                                               ; preds = %26
  br label %52

52:                                               ; preds = %51, %2
  %53 = load ptr, ptr %3, align 8, !tbaa !11
  %54 = load ptr, ptr %6, align 8, !tbaa !63
  %55 = getelementptr inbounds nuw %struct.HermiteDataMemRec, ptr %54, i32 0, i32 1
  %56 = load ptr, ptr %55, align 8, !tbaa !67
  %57 = call i32 @IDAAGettnSolutionYp(ptr noundef %53, ptr noundef %56)
  %58 = load ptr, ptr %5, align 8, !tbaa !13
  %59 = getelementptr inbounds nuw %struct.IDAadjMemRec, ptr %58, i32 0, i32 22
  %60 = load i32, ptr %59, align 8, !tbaa !41
  %61 = icmp ne i32 %60, 0
  br i1 %61, label %62, label %68

62:                                               ; preds = %52
  %63 = load ptr, ptr %3, align 8, !tbaa !11
  %64 = load ptr, ptr %6, align 8, !tbaa !63
  %65 = getelementptr inbounds nuw %struct.HermiteDataMemRec, ptr %64, i32 0, i32 3
  %66 = load ptr, ptr %65, align 8, !tbaa !69
  %67 = call i32 @IDAAGettnSolutionYpS(ptr noundef %63, ptr noundef %66)
  br label %68

68:                                               ; preds = %62, %52
  call void @llvm.lifetime.end.p0(i64 4, ptr %7) #6
  call void @llvm.lifetime.end.p0(i64 8, ptr %6) #6
  call void @llvm.lifetime.end.p0(i64 8, ptr %5) #6
  ret i32 0
}