; Function Attrs: nounwind uwtable
define internal noundef i32 @IDAAhermiteStorePnt(ptr noundef readonly captures(none) %0, ptr noundef readonly captures(none) %1) #0 {
  %3 = getelementptr inbounds nuw i8, ptr %0, i64 1816
  %4 = load ptr, ptr %3, align 8, !tbaa !3
  %5 = getelementptr inbounds nuw i8, ptr %1, i64 8
  %6 = load ptr, ptr %5, align 8, !tbaa !28
  %7 = getelementptr inbounds nuw i8, ptr %0, i64 312
  %8 = load ptr, ptr %7, align 8, !tbaa !68
  %9 = load ptr, ptr %6, align 8, !tbaa !53
  tail call void @N_VScale(double noundef 1.000000e+00, ptr noundef %8, ptr noundef %9) #9
  %10 = getelementptr inbounds nuw i8, ptr %4, i64 160
  %11 = load i32, ptr %10, align 8, !tbaa !36
  %.not = icmp eq i32 %11, 0
  br i1 %.not, label %.loopexit, label %.preheader

.preheader:                                       ; preds = %2
  %12 = getelementptr inbounds nuw i8, ptr %0, i64 140
  %13 = load i32, ptr %12, align 4, !tbaa !50
  %14 = icmp sgt i32 %13, 0
  br i1 %14, label %.lr.ph, label %.loopexit

.lr.ph:                                           ; preds = %.preheader
  %15 = getelementptr inbounds nuw i8, ptr %0, i64 800
  %16 = getelementptr inbounds nuw i8, ptr %6, i64 16
  br label %17

17:                                               ; preds = %.lr.ph, %17
  %indvars.iv = phi i64 [ 0, %.lr.ph ], [ %indvars.iv.next, %17 ]
  %18 = load ptr, ptr %15, align 8, !tbaa !70
  %19 = getelementptr inbounds nuw ptr, ptr %18, i64 %indvars.iv
  %20 = load ptr, ptr %19, align 8, !tbaa !68
  %21 = load ptr, ptr %16, align 8, !tbaa !56
  %22 = getelementptr inbounds nuw ptr, ptr %21, i64 %indvars.iv
  %23 = load ptr, ptr %22, align 8, !tbaa !68
  tail call void @N_VScale(double noundef 1.000000e+00, ptr noundef %20, ptr noundef %23) #9
  %indvars.iv.next = add nuw nsw i64 %indvars.iv, 1
  %24 = load i32, ptr %12, align 4, !tbaa !50
  %25 = sext i32 %24 to i64
  %26 = icmp slt i64 %indvars.iv.next, %25
  br i1 %26, label %17, label %.loopexit, !llvm.loop !74

.loopexit:                                        ; preds = %17, %.preheader, %2
  %27 = getelementptr inbounds nuw i8, ptr %6, i64 8
  %28 = load ptr, ptr %27, align 8, !tbaa !55
  %29 = getelementptr inbounds nuw i8, ptr %0, i64 1320
  %30 = load i64, ptr %29, align 8, !tbaa !75
  %31 = icmp eq i64 %30, 0
  br i1 %31, label %32, label %35

32:                                               ; preds = %.loopexit
  %33 = getelementptr inbounds nuw i8, ptr %0, i64 320
  %34 = load ptr, ptr %33, align 8, !tbaa !68
  tail call void @N_VScale(double noundef 1.000000e+00, ptr noundef %34, ptr noundef %28) #9
  br label %IDAAGettnSolutionYp.exit

35:                                               ; preds = %.loopexit
  tail call void @N_VConst(double noundef 0.000000e+00, ptr noundef %28) #9
  %36 = getelementptr inbounds nuw i8, ptr %0, i64 1660
  %37 = load i32, ptr %36, align 4, !tbaa !76
  %spec.store.select.i = tail call i32 @llvm.umax.i32(i32 %37, i32 1)
  %.not29.i = icmp slt i32 %spec.store.select.i, 1
  br i1 %.not29.i, label %IDAAGettnSolutionYp.exit, label %.lr.ph.i

.lr.ph.i:                                         ; preds = %35
  %38 = getelementptr inbounds nuw i8, ptr %0, i64 360
  %39 = add nuw i32 %spec.store.select.i, 1
  %wide.trip.count.i = zext i32 %39 to i64
  br label %40

40:                                               ; preds = %40, %.lr.ph.i
  %indvars.iv.i = phi i64 [ 1, %.lr.ph.i ], [ %indvars.iv.next.i, %40 ]
  %.033.i = phi double [ 0.000000e+00, %.lr.ph.i ], [ %49, %40 ]
  %.02532.i = phi double [ 0.000000e+00, %.lr.ph.i ], [ %45, %40 ]
  %.02631.i = phi double [ 1.000000e+00, %.lr.ph.i ], [ %46, %40 ]
  %41 = add nsw i64 %indvars.iv.i, -1
  %42 = getelementptr inbounds [6 x double], ptr %38, i64 0, i64 %41
  %43 = load double, ptr %42, align 8, !tbaa !77
  %44 = fdiv double %.02631.i, %43
  %45 = tail call double @llvm.fmuladd.f64(double %.02532.i, double %.033.i, double %44)
  %46 = fmul double %.033.i, %.02631.i
  %47 = getelementptr inbounds nuw [6 x double], ptr %38, i64 0, i64 %indvars.iv.i
  %48 = load double, ptr %47, align 8, !tbaa !77
  %49 = fdiv double %43, %48
  %50 = getelementptr inbounds nuw [6 x ptr], ptr %7, i64 0, i64 %indvars.iv.i
  %51 = load ptr, ptr %50, align 8, !tbaa !68
  tail call void @N_VLinearSum(double noundef 1.000000e+00, ptr noundef %28, double noundef %45, ptr noundef %51, ptr noundef %28) #9
  %indvars.iv.next.i = add nuw nsw i64 %indvars.iv.i, 1
  %exitcond.not.i = icmp eq i64 %indvars.iv.next.i, %wide.trip.count.i
  br i1 %exitcond.not.i, label %IDAAGettnSolutionYp.exit, label %40, !llvm.loop !78

IDAAGettnSolutionYp.exit:                         ; preds = %40, %32, %35
  %52 = load i32, ptr %10, align 8, !tbaa !36
  %.not16 = icmp eq i32 %52, 0
  br i1 %.not16, label %56, label %53

53:                                               ; preds = %IDAAGettnSolutionYp.exit
  %54 = getelementptr inbounds nuw i8, ptr %6, i64 24
  %55 = load ptr, ptr %54, align 8, !tbaa !57
  tail call fastcc void @IDAAGettnSolutionYpS(ptr noundef nonnull %0, ptr noundef %55)
  br label %56

56:                                               ; preds = %53, %IDAAGettnSolutionYp.exit
  ret i32 0
}